target datalayout = "e-m:e-p270:32:32-p271:32:32-p272:64:64-i64:64-i128:128-f80:128-n8:16:32:64-S128"
target triple = "x86_64-pc-linux-gnu"

%struct.ossl_dispatch_st = type { i32, ptr }
%struct.p_test_ctx = type { ptr, ptr, ptr, ptr }

@c_gettable_params = internal global ptr null, align 8
@c_get_params = internal global ptr null, align 8
@c_new_error = internal global ptr null, align 8
@c_set_error_debug = internal global ptr null, align 8
@c_vset_error = internal global ptr null, align 8
@c_BIO_vsnprintf = internal global ptr null, align 8
@.str = private unnamed_addr constant [25 x i8] c"../openssl/test/p_test.c\00", align 1
@__func__.p_test_init = private unnamed_addr constant [12 x i8] c"p_test_init\00", align 1
@.str.1 = private unnamed_addr constant [9 x i8] c"SHA2-256\00", align 1

; Function Attrs: nounwind uwtable
define internal void @p_teardown(ptr noundef %0) #0 {
  %2 = alloca ptr, align 8
  %3 = alloca ptr, align 8
  store ptr %0, ptr %2, align 8, !tbaa !13
  call void @llvm.lifetime.start.p0(i64 8, ptr %3) #8
  %4 = load ptr, ptr %2, align 8, !tbaa !13
  store ptr %4, ptr %3, align 8, !tbaa !19
  %5 = load ptr, ptr %3, align 8, !tbaa !19
  %6 = getelementptr inbounds nuw %struct.p_test_ctx, ptr %5, i32 0, i32 3
  %7 = load ptr, ptr %6, align 8, !tbaa !27
  call void @OSSL_LIB_CTX_free(ptr noundef %7)
  %8 = load ptr, ptr %3, align 8, !tbaa !19
  %9 = getelementptr inbounds nuw %struct.p_test_ctx, ptr %8, i32 0, i32 0
  %10 = load ptr, ptr %9, align 8, !tbaa !21
  call void @free(ptr noundef %10) #8
  %11 = load ptr, ptr %3, align 8, !tbaa !19
  %12 = getelementptr inbounds nuw %struct.p_test_ctx, ptr %11, i32 0, i32 1
  %13 = load ptr, ptr %12, align 8, !tbaa !25
  call void @free(ptr noundef %13) #8
  %14 = load ptr, ptr %3, align 8, !tbaa !19
  call void @free(ptr noundef %14) #8
  call void @llvm.lifetime.end.p0(i64 8, ptr %3) #8
  ret void
}

; Function Attrs: inlinehint nounwind uwtable
define internal ptr @OSSL_FUNC_BIO_vsnprintf(ptr noundef %0) #2 {
  %2 = alloca ptr, align 8
  store ptr %0, ptr %2, align 8, !tbaa !9
  %3 = load ptr, ptr %2, align 8, !tbaa !9
  %4 = getelementptr inbounds nuw %struct.ossl_dispatch_st, ptr %3, i32 0, i32 1
  %5 = load ptr, ptr %4, align 8, !tbaa !30
  ret ptr %5
}

; Function Attrs: inlinehint nounwind uwtable
define internal ptr @OSSL_FUNC_core_vset_error(ptr noundef %0) #2 {
  %2 = alloca ptr, align 8
  store ptr %0, ptr %2, align 8, !tbaa !9
  %3 = load ptr, ptr %2, align 8, !tbaa !9
  %4 = getelementptr inbounds nuw %struct.ossl_dispatch_st, ptr %3, i32 0, i32 1
  %5 = load ptr, ptr %4, align 8, !tbaa !30
  ret ptr %5
}

; Function Attrs: inlinehint nounwind uwtable
define internal ptr @OSSL_FUNC_core_set_error_debug(ptr noundef %0) #2 {
  %2 = alloca ptr, align 8
  store ptr %0, ptr %2, align 8, !tbaa !9
  %3 = load ptr, ptr %2, align 8, !tbaa !9
  %4 = getelementptr inbounds nuw %struct.ossl_dispatch_st, ptr %3, i32 0, i32 1
  %5 = load ptr, ptr %4, align 8, !tbaa !30
  ret ptr %5
}

; Function Attrs: inlinehint nounwind uwtable
define internal ptr @OSSL_FUNC_core_new_error(ptr noundef %0) #2 {
  %2 = alloca ptr, align 8
  store ptr %0, ptr %2, align 8, !tbaa !9
  %3 = load ptr, ptr %2, align 8, !tbaa !9
  %4 = getelementptr inbounds nuw %struct.ossl_dispatch_st, ptr %3, i32 0, i32 1
  %5 = load ptr, ptr %4, align 8, !tbaa !30
  ret ptr %5
}

; Function Attrs: inlinehint nounwind uwtable
define internal ptr @OSSL_FUNC_core_get_params(ptr noundef %0) #2 {
  %2 = alloca ptr, align 8
  store ptr %0, ptr %2, align 8, !tbaa !9
  %3 = load ptr, ptr %2, align 8, !tbaa !9
  %4 = getelementptr inbounds nuw %struct.ossl_dispatch_st, ptr %3, i32 0, i32 1
  %5 = load ptr, ptr %4, align 8, !tbaa !30
  ret ptr %5
}

; Function Attrs: inlinehint nounwind uwtable
define internal ptr @OSSL_FUNC_core_gettable_params(ptr noundef %0) #2 {
  %2 = alloca ptr, align 8
  store ptr %0, ptr %2, align 8, !tbaa !9
  %3 = load ptr, ptr %2, align 8, !tbaa !9
  %4 = getelementptr inbounds nuw %struct.ossl_dispatch_st, ptr %3, i32 0, i32 1
  %5 = load ptr, ptr %4, align 8, !tbaa !30
  ret ptr %5
}

; Function Attrs: nounwind uwtable
define dso_local i32 @p_test_init(ptr noundef %0, ptr noundef %1, ptr noundef %2, ptr noundef %3) #0 {
  %5 = alloca i32, align 4
  %6 = alloca ptr, align 8
  %7 = alloca ptr, align 8
  %8 = alloca ptr, align 8
  %9 = alloca ptr, align 8
  %10 = alloca ptr, align 8
  %11 = alloca ptr, align 8
  %12 = alloca i32, align 4
  %13 = alloca ptr, align 8
  store ptr %0, ptr %6, align 8, !tbaa !4
  store ptr %1, ptr %7, align 8, !tbaa !9
  store ptr %2, ptr %8, align 8, !tbaa !11
  store ptr %3, ptr %9, align 8, !tbaa !13
  call void @llvm.lifetime.start.p0(i64 8, ptr %10) #8
  call void @llvm.lifetime.start.p0(i64 8, ptr %11) #8
  %14 = load ptr, ptr %7, align 8, !tbaa !9
  store ptr %14, ptr %11, align 8, !tbaa !9
  br label %15

15:                                               ; preds = %44, %4
  %16 = load ptr, ptr %11, align 8, !tbaa !9
  %17 = getelementptr inbounds nuw %struct.ossl_dispatch_st, ptr %16, i32 0, i32 0
  %18 = load i32, ptr %17, align 8, !tbaa !14
  %19 = icmp ne i32 %18, 0
  br i1 %19, label %20, label %47

20:                                               ; preds = %15
  %21 = load ptr, ptr %11, align 8, !tbaa !9
  %22 = getelementptr inbounds nuw %struct.ossl_dispatch_st, ptr %21, i32 0, i32 0
  %23 = load i32, ptr %22, align 8, !tbaa !14
  switch i32 %23, label %42 [
    i32 1, label %24
    i32 2, label %27
    i32 5, label %30
    i32 6, label %33
    i32 7, label %36
    i32 47, label %39
  ]

24:                                               ; preds = %20
  %25 = load ptr, ptr %11, align 8, !tbaa !9
  %26 = call ptr @OSSL_FUNC_core_gettable_params(ptr noundef %25)
  store ptr %26, ptr @c_gettable_params, align 8, !tbaa !13
  br label %43

27:                                               ; preds = %20
  %28 = load ptr, ptr %11, align 8, !tbaa !9
  %29 = call ptr @OSSL_FUNC_core_get_params(ptr noundef %28)
  store ptr %29, ptr @c_get_params, align 8, !tbaa !13
  br label %43

30:                                               ; preds = %20
  %31 = load ptr, ptr %11, align 8, !tbaa !9
  %32 = call ptr @OSSL_FUNC_core_new_error(ptr noundef %31)
  store ptr %32, ptr @c_new_error, align 8, !tbaa !13
  br label %43

33:                                               ; preds = %20
  %34 = load ptr, ptr %11, align 8, !tbaa !9
  %35 = call ptr @OSSL_FUNC_core_set_error_debug(ptr noundef %34)
  store ptr %35, ptr @c_set_error_debug, align 8, !tbaa !13
  br label %43

36:                                               ; preds = %20
  %37 = load ptr, ptr %11, align 8, !tbaa !9
  %38 = call ptr @OSSL_FUNC_core_vset_error(ptr noundef %37)
  store ptr %38, ptr @c_vset_error, align 8, !tbaa !13
  br label %43

39:                                               ; preds = %20
  %40 = load ptr, ptr %11, align 8, !tbaa !9
  %41 = call ptr @OSSL_FUNC_BIO_vsnprintf(ptr noundef %40)
  store ptr %41, ptr @c_BIO_vsnprintf, align 8, !tbaa !13
  br label %43

42:                                               ; preds = %20
  br label %43

43:                                               ; preds = %42, %39, %36, %33, %30, %27, %24
  br label %44

44:                                               ; preds = %43
  %45 = load ptr, ptr %11, align 8, !tbaa !9
  %46 = getelementptr inbounds nuw %struct.ossl_dispatch_st, ptr %45, i32 1
  store ptr %46, ptr %11, align 8, !tbaa !9
  br label %15, !llvm.loop !17

47:                                               ; preds = %15
  %48 = call noalias ptr @malloc(i64 noundef 32) #9
  store ptr %48, ptr %10, align 8, !tbaa !19
  %49 = load ptr, ptr %10, align 8, !tbaa !19
  %50 = icmp eq ptr %49, null
  br i1 %50, label %51, label %52

51:                                               ; preds = %47
  store i32 0, ptr %5, align 4
  store i32 1, ptr %12, align 4
  br label %102

52:                                               ; preds = %47
  %53 = call noalias ptr @strdup(ptr noundef @.str) #8
  %54 = load ptr, ptr %10, align 8, !tbaa !19
  %55 = getelementptr inbounds nuw %struct.p_test_ctx, ptr %54, i32 0, i32 0
  store ptr %53, ptr %55, align 8, !tbaa !21
  %56 = call noalias ptr @strdup(ptr noundef @__func__.p_test_init) #8
  %57 = load ptr, ptr %10, align 8, !tbaa !19
  %58 = getelementptr inbounds nuw %struct.p_test_ctx, ptr %57, i32 0, i32 1
  store ptr %56, ptr %58, align 8, !tbaa !25
  %59 = load ptr, ptr %6, align 8, !tbaa !4
  %60 = load ptr, ptr %10, align 8, !tbaa !19
  %61 = getelementptr inbounds nuw %struct.p_test_ctx, ptr %60, i32 0, i32 2
  store ptr %59, ptr %61, align 8, !tbaa !26
  %62 = load ptr, ptr %6, align 8, !tbaa !4
  %63 = load ptr, ptr %7, align 8, !tbaa !9
  %64 = call ptr @OSSL_LIB_CTX_new_child(ptr noundef %62, ptr noundef %63)
  %65 = load ptr, ptr %10, align 8, !tbaa !19
  %66 = getelementptr inbounds nuw %struct.p_test_ctx, ptr %65, i32 0, i32 3
  store ptr %64, ptr %66, align 8, !tbaa !27
  %67 = load ptr, ptr %10, align 8, !tbaa !19
  %68 = getelementptr inbounds nuw %struct.p_test_ctx, ptr %67, i32 0, i32 3
  %69 = load ptr, ptr %68, align 8, !tbaa !27
  %70 = icmp eq ptr %69, null
  br i1 %70, label %71, label %79

71:                                               ; preds = %52
  %72 = load ptr, ptr %10, align 8, !tbaa !19
  %73 = getelementptr inbounds nuw %struct.p_test_ctx, ptr %72, i32 0, i32 0
  %74 = load ptr, ptr %73, align 8, !tbaa !21
  %75 = load ptr, ptr %10, align 8, !tbaa !19
  %76 = getelementptr inbounds nuw %struct.p_test_ctx, ptr %75, i32 0, i32 1
  %77 = load ptr, ptr %76, align 8, !tbaa !25
  call void (i32, i32, ptr, i32, ptr, ptr, ...) @p_set_error(i32 noundef 57, i32 noundef 2, ptr noundef %74, i32 noundef 306, ptr noundef %77, ptr noundef null)
  %78 = load ptr, ptr %10, align 8, !tbaa !19
  call void @p_teardown(ptr noundef %78)
  store i32 0, ptr %5, align 4
  store i32 1, ptr %12, align 4
  br label %102

79:                                               ; preds = %52
  call void @llvm.lifetime.start.p0(i64 8, ptr %13) #8
  %80 = load ptr, ptr %10, align 8, !tbaa !19
  %81 = getelementptr inbounds nuw %struct.p_test_ctx, ptr %80, i32 0, i32 3
  %82 = load ptr, ptr %81, align 8, !tbaa !27
  %83 = call ptr @EVP_MD_fetch(ptr noundef %82, ptr noundef @.str.1, ptr noundef null)
  store ptr %83, ptr %13, align 8, !tbaa !28
  %84 = load ptr, ptr %13, align 8, !tbaa !28
  %85 = icmp ne ptr %84, null
  br i1 %85, label %86, label %89

86:                                               ; preds = %79
  %87 = load ptr, ptr %13, align 8, !tbaa !28
  call void @EVP_MD_free(ptr noundef %87)
  %88 = load ptr, ptr %10, align 8, !tbaa !19
  call void @p_teardown(ptr noundef %88)
  store i32 0, ptr %5, align 4
  store i32 1, ptr %12, align 4
  br label %90

89:                                               ; preds = %79
  store i32 0, ptr %12, align 4
  br label %90

90:                                               ; preds = %89, %86
  call void @llvm.lifetime.end.p0(i64 8, ptr %13) #8
  %91 = load i32, ptr %12, align 4
  switch i32 %91, label %102 [
    i32 0, label %92
  ]

92:                                               ; preds = %90
  %93 = load ptr, ptr %10, align 8, !tbaa !19
  %94 = getelementptr inbounds nuw %struct.p_test_ctx, ptr %93, i32 0, i32 0
  %95 = load ptr, ptr %94, align 8, !tbaa !21
  %96 = load ptr, ptr %10, align 8, !tbaa !19
  %97 = getelementptr inbounds nuw %struct.p_test_ctx, ptr %96, i32 0, i32 1
  %98 = load ptr, ptr %97, align 8, !tbaa !25
  call void (i32, i32, ptr, i32, ptr, ptr, ...) @p_set_error(i32 noundef 57, i32 noundef 1, ptr noundef %95, i32 noundef 329, ptr noundef %98, ptr noundef null)
  %99 = load ptr, ptr %10, align 8, !tbaa !19
  %100 = load ptr, ptr %9, align 8, !tbaa !13
  store ptr %99, ptr %100, align 8, !tbaa !13
  %101 = load ptr, ptr %8, align 8, !tbaa !11
  store ptr @p_test_table, ptr %101, align 8, !tbaa !9
  store i32 1, ptr %5, align 4
  store i32 1, ptr %12, align 4
  br label %102

102:                                              ; preds = %92, %90, %71, %51
  call void @llvm.lifetime.end.p0(i64 8, ptr %11) #8
  call void @llvm.lifetime.end.p0(i64 8, ptr %10) #8
  %103 = load i32, ptr %5, align 4
  ret i32 %103
}