; Function Attrs: nounwind uwtable
define dso_local range(i32 0, 2) i32 @p_test_init(ptr noundef %0, ptr noundef %1, ptr noundef writeonly captures(none) %2, ptr noundef writeonly captures(none) %3) local_unnamed_addr #0 {
  br label %5

5:                                                ; preds = %13, %4
  %.033 = phi ptr [ %1, %4 ], [ %14, %13 ]
  %6 = load i32, ptr %.033, align 8, !tbaa !4
  switch i32 %6, label %13 [
    i32 0, label %15
    i32 1, label %.sink.split
    i32 2, label %7
    i32 5, label %8
    i32 6, label %9
    i32 7, label %10
    i32 47, label %11
  ]

7:                                                ; preds = %5
  br label %.sink.split

8:                                                ; preds = %5
  br label %.sink.split

9:                                                ; preds = %5
  br label %.sink.split

10:                                               ; preds = %5
  br label %.sink.split

11:                                               ; preds = %5
  br label %.sink.split

.sink.split:                                      ; preds = %5, %11, %10, %9, %8, %7
  %c_gettable_params.sink = phi ptr [ @c_get_params, %7 ], [ @c_new_error, %8 ], [ @c_set_error_debug, %9 ], [ @c_vset_error, %10 ], [ @c_BIO_vsnprintf, %11 ], [ @c_gettable_params, %5 ]
  %12 = getelementptr i8, ptr %.033, i64 8
  %.033.val = load ptr, ptr %12, align 8, !tbaa !10
  store ptr %.033.val, ptr %c_gettable_params.sink, align 8, !tbaa !11
  br label %13

13:                                               ; preds = %.sink.split, %5
  %14 = getelementptr inbounds nuw i8, ptr %.033, i64 16
  br label %5, !llvm.loop !12

15:                                               ; preds = %5
  %16 = tail call noalias dereferenceable_or_null(32) ptr @malloc(i64 noundef 32) #11
  %17 = icmp eq ptr %16, null
  br i1 %17, label %30, label %18

18:                                               ; preds = %15
  %19 = tail call noalias dereferenceable_or_null(25) ptr @strdup(ptr noundef nonnull @.str) #12
  store ptr %19, ptr %16, align 8, !tbaa !14
  %20 = tail call noalias dereferenceable_or_null(12) ptr @strdup(ptr noundef nonnull @__func__.p_test_init) #12
  %21 = getelementptr inbounds nuw i8, ptr %16, i64 8
  store ptr %20, ptr %21, align 8, !tbaa !19
  %22 = getelementptr inbounds nuw i8, ptr %16, i64 16
  store ptr %0, ptr %22, align 8, !tbaa !20
  %23 = tail call ptr @OSSL_LIB_CTX_new_child(ptr noundef %0, ptr noundef %1) #12
  %24 = getelementptr inbounds nuw i8, ptr %16, i64 24
  store ptr %23, ptr %24, align 8, !tbaa !21
  %25 = icmp eq ptr %23, null
  br i1 %25, label %26, label %27

26:                                               ; preds = %18
  tail call void (i32, i32, ptr, i32, ptr, ptr, ...) @p_set_error(i32 poison, i32 noundef 2, ptr noundef %19, i32 noundef 306, ptr noundef %20, ptr poison)
  tail call void @OSSL_LIB_CTX_free(ptr noundef null) #12
  tail call void @free(ptr noundef %19) #12
  tail call void @free(ptr noundef %20) #12
  tail call void @free(ptr noundef nonnull %16) #12
  br label %30

27:                                               ; preds = %18
  %28 = tail call ptr @EVP_MD_fetch(ptr noundef nonnull %23, ptr noundef nonnull @.str.1, ptr noundef null) #12
  %.not38 = icmp eq ptr %28, null
  br i1 %.not38, label %.critedge, label %29

29:                                               ; preds = %27
  tail call void @EVP_MD_free(ptr noundef nonnull %28) #12
  tail call void @OSSL_LIB_CTX_free(ptr noundef nonnull %23) #12
  tail call void @free(ptr noundef %19) #12
  tail call void @free(ptr noundef %20) #12
  tail call void @free(ptr noundef nonnull %16) #12
  br label %30

.critedge:                                        ; preds = %27
  tail call void (i32, i32, ptr, i32, ptr, ptr, ...) @p_set_error(i32 poison, i32 noundef 1, ptr noundef %19, i32 noundef 329, ptr noundef %20, ptr poison)
  store ptr %16, ptr %3, align 8, !tbaa !11
  store ptr @p_test_table, ptr %2, align 8, !tbaa !22
  br label %30

30:                                               ; preds = %29, %15, %.critedge, %26
  %.0 = phi i32 [ 0, %26 ], [ 1, %.critedge ], [ 0, %29 ], [ 0, %15 ]
  ret i32 %.0
}